target datalayout = "e-m:e-p270:32:32-p271:32:32-p272:64:64-i64:64-i128:128-f80:128-n8:16:32:64-S128"
target triple = "x86_64-pc-linux-gnu"

%struct.redisObject = type { i32, i32, ptr }
%struct.sdshdr8 = type { i8, i8, i8, [0 x i8] }
%struct.sdshdr16 = type <{ i16, i16, i8, [0 x i8] }>
%struct.sdshdr32 = type <{ i32, i32, i8, [0 x i8] }>
%struct.sdshdr64 = type <{ i64, i64, i8, [0 x i8] }>

@.str = private unnamed_addr constant [3 x i8] c"->\00", align 1

; Function Attrs: inlinehint nounwind uwtable
define internal i64 @sdslen(ptr noundef %0) #5 {
  %2 = alloca i64, align 8
  %3 = alloca ptr, align 8
  %4 = alloca i8, align 1
  %5 = alloca i32, align 4
  store ptr %0, ptr %3, align 8, !tbaa !21
  call void @llvm.lifetime.start.p0(i64 1, ptr %4) #11
  %6 = load ptr, ptr %3, align 8, !tbaa !21
  %7 = getelementptr inbounds i8, ptr %6, i64 -1
  %8 = load i8, ptr %7, align 1, !tbaa !23
  store i8 %8, ptr %4, align 1, !tbaa !23
  %9 = load i8, ptr %4, align 1, !tbaa !23
  %10 = zext i8 %9 to i32
  %11 = and i32 %10, 7
  switch i32 %11, label %40 [
    i32 0, label %12
    i32 1, label %17
    i32 2, label %23
    i32 3, label %29
    i32 4, label %35
  ]

12:                                               ; preds = %1
  %13 = load i8, ptr %4, align 1, !tbaa !23
  %14 = zext i8 %13 to i32
  %15 = ashr i32 %14, 3
  %16 = sext i32 %15 to i64
  store i64 %16, ptr %2, align 8
  store i32 1, ptr %5, align 4
  br label %41

17:                                               ; preds = %1
  %18 = load ptr, ptr %3, align 8, !tbaa !21
  %19 = getelementptr inbounds i8, ptr %18, i64 -3
  %20 = getelementptr inbounds nuw %struct.sdshdr8, ptr %19, i32 0, i32 0
  %21 = load i8, ptr %20, align 1, !tbaa !23
  %22 = zext i8 %21 to i64
  store i64 %22, ptr %2, align 8
  store i32 1, ptr %5, align 4
  br label %41

23:                                               ; preds = %1
  %24 = load ptr, ptr %3, align 8, !tbaa !21
  %25 = getelementptr inbounds i8, ptr %24, i64 -5
  %26 = getelementptr inbounds nuw %struct.sdshdr16, ptr %25, i32 0, i32 0
  %27 = load i16, ptr %26, align 1, !tbaa !24
  %28 = zext i16 %27 to i64
  store i64 %28, ptr %2, align 8
  store i32 1, ptr %5, align 4
  br label %41

29:                                               ; preds = %1
  %30 = load ptr, ptr %3, align 8, !tbaa !21
  %31 = getelementptr inbounds i8, ptr %30, i64 -9
  %32 = getelementptr inbounds nuw %struct.sdshdr32, ptr %31, i32 0, i32 0
  %33 = load i32, ptr %32, align 1, !tbaa !5
  %34 = zext i32 %33 to i64
  store i64 %34, ptr %2, align 8
  store i32 1, ptr %5, align 4
  br label %41

35:                                               ; preds = %1
  %36 = load ptr, ptr %3, align 8, !tbaa !21
  %37 = getelementptr inbounds i8, ptr %36, i64 -17
  %38 = getelementptr inbounds nuw %struct.sdshdr64, ptr %37, i32 0, i32 0
  %39 = load i64, ptr %38, align 1, !tbaa !26
  store i64 %39, ptr %2, align 8
  store i32 1, ptr %5, align 4
  br label %41

40:                                               ; preds = %1
  store i64 0, ptr %2, align 8
  store i32 1, ptr %5, align 4
  br label %41

41:                                               ; preds = %40, %35, %29, %23, %17, %12
  call void @llvm.lifetime.end.p0(i64 1, ptr %4) #11
  %42 = load i64, ptr %2, align 8
  ret i64 %42
}

; Function Attrs: nounwind uwtable
define dso_local ptr @lookupKeyByPattern(ptr noundef %0, ptr noundef %1, ptr noundef %2) #0 {
  %4 = alloca ptr, align 8
  %5 = alloca ptr, align 8
  %6 = alloca ptr, align 8
  %7 = alloca ptr, align 8
  %8 = alloca ptr, align 8
  %9 = alloca ptr, align 8
  %10 = alloca ptr, align 8
  %11 = alloca ptr, align 8
  %12 = alloca ptr, align 8
  %13 = alloca ptr, align 8
  %14 = alloca ptr, align 8
  %15 = alloca ptr, align 8
  %16 = alloca ptr, align 8
  %17 = alloca i32, align 4
  %18 = alloca i32, align 4
  %19 = alloca i32, align 4
  %20 = alloca i32, align 4
  %21 = alloca i32, align 4
  %22 = alloca i32, align 4
  store ptr %0, ptr %5, align 8, !tbaa !17
  store ptr %1, ptr %6, align 8, !tbaa !9
  store ptr %2, ptr %7, align 8, !tbaa !9
  call void @llvm.lifetime.start.p0(i64 8, ptr %8) #11
  call void @llvm.lifetime.start.p0(i64 8, ptr %9) #11
  call void @llvm.lifetime.start.p0(i64 8, ptr %10) #11
  call void @llvm.lifetime.start.p0(i64 8, ptr %11) #11
  call void @llvm.lifetime.start.p0(i64 8, ptr %12) #11
  call void @llvm.lifetime.start.p0(i64 8, ptr %13) #11
  call void @llvm.lifetime.start.p0(i64 8, ptr %14) #11
  store ptr null, ptr %14, align 8, !tbaa !9
  call void @llvm.lifetime.start.p0(i64 8, ptr %15) #11
  call void @llvm.lifetime.start.p0(i64 8, ptr %16) #11
  call void @llvm.lifetime.start.p0(i64 4, ptr %17) #11
  call void @llvm.lifetime.start.p0(i64 4, ptr %18) #11
  call void @llvm.lifetime.start.p0(i64 4, ptr %19) #11
  call void @llvm.lifetime.start.p0(i64 4, ptr %20) #11
  %23 = load ptr, ptr %6, align 8, !tbaa !9
  %24 = getelementptr inbounds nuw %struct.redisObject, ptr %23, i32 0, i32 2
  %25 = load ptr, ptr %24, align 8, !tbaa !19
  store ptr %25, ptr %11, align 8, !tbaa !21
  %26 = load ptr, ptr %11, align 8, !tbaa !21
  %27 = getelementptr inbounds i8, ptr %26, i64 0
  %28 = load i8, ptr %27, align 1, !tbaa !23
  %29 = sext i8 %28 to i32
  %30 = icmp eq i32 %29, 35
  br i1 %30, label %31, label %40

31:                                               ; preds = %3
  %32 = load ptr, ptr %11, align 8, !tbaa !21
  %33 = getelementptr inbounds i8, ptr %32, i64 1
  %34 = load i8, ptr %33, align 1, !tbaa !23
  %35 = sext i8 %34 to i32
  %36 = icmp eq i32 %35, 0
  br i1 %36, label %37, label %40

37:                                               ; preds = %31
  %38 = load ptr, ptr %7, align 8, !tbaa !9
  call void @incrRefCount(ptr noundef %38)
  %39 = load ptr, ptr %7, align 8, !tbaa !9
  store ptr %39, ptr %4, align 8
  store i32 1, ptr %21, align 4
  br label %193

40:                                               ; preds = %31, %3
  %41 = load ptr, ptr %7, align 8, !tbaa !9
  %42 = call ptr @getDecodedObject(ptr noundef %41)
  store ptr %42, ptr %7, align 8, !tbaa !9
  %43 = load ptr, ptr %7, align 8, !tbaa !9
  %44 = getelementptr inbounds nuw %struct.redisObject, ptr %43, i32 0, i32 2
  %45 = load ptr, ptr %44, align 8, !tbaa !19
  store ptr %45, ptr %12, align 8, !tbaa !21
  %46 = load ptr, ptr %11, align 8, !tbaa !21
  %47 = call ptr @strchr(ptr noundef %46, i32 noundef 42) #13
  store ptr %47, ptr %8, align 8, !tbaa !21
  %48 = load ptr, ptr %8, align 8, !tbaa !21
  %49 = icmp ne ptr %48, null
  br i1 %49, label %52, label %50

50:                                               ; preds = %40
  %51 = load ptr, ptr %7, align 8, !tbaa !9
  call void @decrRefCount(ptr noundef %51)
  store ptr null, ptr %4, align 8
  store i32 1, ptr %21, align 4
  br label %193

52:                                               ; preds = %40
  %53 = load ptr, ptr %8, align 8, !tbaa !21
  %54 = getelementptr inbounds i8, ptr %53, i64 1
  %55 = call ptr @strstr(ptr noundef %54, ptr noundef @.str) #13
  store ptr %55, ptr %9, align 8, !tbaa !21
  %56 = icmp ne ptr %55, null
  br i1 %56, label %57, label %79

57:                                               ; preds = %52
  %58 = load ptr, ptr %9, align 8, !tbaa !21
  %59 = getelementptr inbounds i8, ptr %58, i64 2
  %60 = load i8, ptr %59, align 1, !tbaa !23
  %61 = sext i8 %60 to i32
  %62 = icmp ne i32 %61, 0
  br i1 %62, label %63, label %79

63:                                               ; preds = %57
  %64 = load ptr, ptr %11, align 8, !tbaa !21
  %65 = call i64 @sdslen(ptr noundef %64)
  %66 = load ptr, ptr %9, align 8, !tbaa !21
  %67 = load ptr, ptr %11, align 8, !tbaa !21
  %68 = ptrtoint ptr %66 to i64
  %69 = ptrtoint ptr %67 to i64
  %70 = sub i64 %68, %69
  %71 = sub i64 %65, %70
  %72 = sub i64 %71, 2
  %73 = trunc i64 %72 to i32
  store i32 %73, ptr %20, align 4, !tbaa !5
  %74 = load ptr, ptr %9, align 8, !tbaa !21
  %75 = getelementptr inbounds i8, ptr %74, i64 2
  %76 = load i32, ptr %20, align 4, !tbaa !5
  %77 = sext i32 %76 to i64
  %78 = call ptr @createStringObject(ptr noundef %75, i64 noundef %77)
  store ptr %78, ptr %14, align 8, !tbaa !9
  br label %80

79:                                               ; preds = %57, %52
  store i32 0, ptr %20, align 4, !tbaa !5
  br label %80

80:                                               ; preds = %79, %63
  %81 = load ptr, ptr %8, align 8, !tbaa !21
  %82 = load ptr, ptr %11, align 8, !tbaa !21
  %83 = ptrtoint ptr %81 to i64
  %84 = ptrtoint ptr %82 to i64
  %85 = sub i64 %83, %84
  %86 = trunc i64 %85 to i32
  store i32 %86, ptr %17, align 4, !tbaa !5
  %87 = load ptr, ptr %12, align 8, !tbaa !21
  %88 = call i64 @sdslen(ptr noundef %87)
  %89 = trunc i64 %88 to i32
  store i32 %89, ptr %18, align 4, !tbaa !5
  %90 = load ptr, ptr %11, align 8, !tbaa !21
  %91 = call i64 @sdslen(ptr noundef %90)
  %92 = load i32, ptr %17, align 4, !tbaa !5
  %93 = add nsw i32 %92, 1
  %94 = sext i32 %93 to i64
  %95 = sub i64 %91, %94
  %96 = load i32, ptr %20, align 4, !tbaa !5
  %97 = icmp ne i32 %96, 0
  br i1 %97, label %98, label %101

98:                                               ; preds = %80
  %99 = load i32, ptr %20, align 4, !tbaa !5
  %100 = add nsw i32 %99, 2
  br label %102

101:                                              ; preds = %80
  br label %102

102:                                              ; preds = %101, %98
  %103 = phi i32 [ %100, %98 ], [ 0, %101 ]
  %104 = sext i32 %103 to i64
  %105 = sub i64 %95, %104
  %106 = trunc i64 %105 to i32
  store i32 %106, ptr %19, align 4, !tbaa !5
  %107 = load i32, ptr %17, align 4, !tbaa !5
  %108 = load i32, ptr %18, align 4, !tbaa !5
  %109 = add nsw i32 %107, %108
  %110 = load i32, ptr %19, align 4, !tbaa !5
  %111 = add nsw i32 %109, %110
  %112 = sext i32 %111 to i64
  %113 = call ptr @createStringObject(ptr noundef null, i64 noundef %112)
  store ptr %113, ptr %13, align 8, !tbaa !9
  %114 = load ptr, ptr %13, align 8, !tbaa !9
  %115 = getelementptr inbounds nuw %struct.redisObject, ptr %114, i32 0, i32 2
  %116 = load ptr, ptr %115, align 8, !tbaa !19
  store ptr %116, ptr %10, align 8, !tbaa !21
  %117 = load ptr, ptr %10, align 8, !tbaa !21
  %118 = load ptr, ptr %11, align 8, !tbaa !21
  %119 = load i32, ptr %17, align 4, !tbaa !5
  %120 = sext i32 %119 to i64
  call void @llvm.memcpy.p0.p0.i64(ptr align 1 %117, ptr align 1 %118, i64 %120, i1 false)
  %121 = load ptr, ptr %10, align 8, !tbaa !21
  %122 = load i32, ptr %17, align 4, !tbaa !5
  %123 = sext i32 %122 to i64
  %124 = getelementptr inbounds i8, ptr %121, i64 %123
  %125 = load ptr, ptr %12, align 8, !tbaa !21
  %126 = load i32, ptr %18, align 4, !tbaa !5
  %127 = sext i32 %126 to i64
  call void @llvm.memcpy.p0.p0.i64(ptr align 1 %124, ptr align 1 %125, i64 %127, i1 false)
  %128 = load ptr, ptr %10, align 8, !tbaa !21
  %129 = load i32, ptr %17, align 4, !tbaa !5
  %130 = sext i32 %129 to i64
  %131 = getelementptr inbounds i8, ptr %128, i64 %130
  %132 = load i32, ptr %18, align 4, !tbaa !5
  %133 = sext i32 %132 to i64
  %134 = getelementptr inbounds i8, ptr %131, i64 %133
  %135 = load ptr, ptr %8, align 8, !tbaa !21
  %136 = getelementptr inbounds i8, ptr %135, i64 1
  %137 = load i32, ptr %19, align 4, !tbaa !5
  %138 = sext i32 %137 to i64
  call void @llvm.memcpy.p0.p0.i64(ptr align 1 %134, ptr align 1 %136, i64 %138, i1 false)
  %139 = load ptr, ptr %7, align 8, !tbaa !9
  call void @decrRefCount(ptr noundef %139)
  %140 = load ptr, ptr %5, align 8, !tbaa !17
  %141 = load ptr, ptr %13, align 8, !tbaa !9
  %142 = call ptr @lookupKeyRead(ptr noundef %140, ptr noundef %141)
  store ptr %142, ptr %15, align 8, !tbaa !9
  %143 = load ptr, ptr %15, align 8, !tbaa !9
  %144 = icmp eq ptr %143, null
  br i1 %144, label %145, label %146

145:                                              ; preds = %102
  br label %186

146:                                              ; preds = %102
  %147 = load ptr, ptr %14, align 8, !tbaa !9
  %148 = icmp ne ptr %147, null
  br i1 %148, label %149, label %170

149:                                              ; preds = %146
  %150 = load ptr, ptr %15, align 8, !tbaa !9
  %151 = load i32, ptr %150, align 8
  %152 = and i32 %151, 15
  %153 = icmp ne i32 %152, 4
  br i1 %153, label %154, label %155

154:                                              ; preds = %149
  br label %186

155:                                              ; preds = %149
  call void @llvm.lifetime.start.p0(i64 4, ptr %22) #11
  %156 = load ptr, ptr %5, align 8, !tbaa !17
  %157 = load ptr, ptr %15, align 8, !tbaa !9
  %158 = load ptr, ptr %14, align 8, !tbaa !9
  %159 = getelementptr inbounds nuw %struct.redisObject, ptr %158, i32 0, i32 2
  %160 = load ptr, ptr %159, align 8, !tbaa !19
  %161 = call i32 @hashTypeGetValueObject(ptr noundef %156, ptr noundef %157, ptr noundef %160, i32 noundef 0, ptr noundef %16, ptr noundef null, ptr noundef %22)
  %162 = load ptr, ptr %16, align 8, !tbaa !9
  store ptr %162, ptr %15, align 8, !tbaa !9
  %163 = load i32, ptr %22, align 4, !tbaa !5
  %164 = icmp ne i32 %163, 0
  br i1 %164, label %165, label %166

165:                                              ; preds = %155
  store i32 2, ptr %21, align 4
  br label %167

166:                                              ; preds = %155
  store i32 0, ptr %21, align 4
  br label %167

167:                                              ; preds = %165, %166
  call void @llvm.lifetime.end.p0(i64 4, ptr %22) #11
  %168 = load i32, ptr %21, align 4
  switch i32 %168, label %193 [
    i32 0, label %169
    i32 2, label %186
  ]

169:                                              ; preds = %167
  br label %178

170:                                              ; preds = %146
  %171 = load ptr, ptr %15, align 8, !tbaa !9
  %172 = load i32, ptr %171, align 8
  %173 = and i32 %172, 15
  %174 = icmp ne i32 %173, 0
  br i1 %174, label %175, label %176

175:                                              ; preds = %170
  br label %186

176:                                              ; preds = %170
  %177 = load ptr, ptr %15, align 8, !tbaa !9
  call void @incrRefCount(ptr noundef %177)
  br label %178

178:                                              ; preds = %176, %169
  %179 = load ptr, ptr %13, align 8, !tbaa !9
  call void @decrRefCount(ptr noundef %179)
  %180 = load ptr, ptr %14, align 8, !tbaa !9
  %181 = icmp ne ptr %180, null
  br i1 %181, label %182, label %184

182:                                              ; preds = %178
  %183 = load ptr, ptr %14, align 8, !tbaa !9
  call void @decrRefCount(ptr noundef %183)
  br label %184

184:                                              ; preds = %182, %178
  %185 = load ptr, ptr %15, align 8, !tbaa !9
  store ptr %185, ptr %4, align 8
  store i32 1, ptr %21, align 4
  br label %193

186:                                              ; preds = %167, %175, %154, %145
  %187 = load ptr, ptr %13, align 8, !tbaa !9
  call void @decrRefCount(ptr noundef %187)
  %188 = load i32, ptr %20, align 4, !tbaa !5
  %189 = icmp ne i32 %188, 0
  br i1 %189, label %190, label %192

190:                                              ; preds = %186
  %191 = load ptr, ptr %14, align 8, !tbaa !9
  call void @decrRefCount(ptr noundef %191)
  br label %192

192:                                              ; preds = %190, %186
  store ptr null, ptr %4, align 8
  store i32 1, ptr %21, align 4
  br label %193

193:                                              ; preds = %192, %184, %167, %50, %37
  call void @llvm.lifetime.end.p0(i64 4, ptr %20) #11
  call void @llvm.lifetime.end.p0(i64 4, ptr %19) #11
  call void @llvm.lifetime.end.p0(i64 4, ptr %18) #11
  call void @llvm.lifetime.end.p0(i64 4, ptr %17) #11
  call void @llvm.lifetime.end.p0(i64 8, ptr %16) #11
  call void @llvm.lifetime.end.p0(i64 8, ptr %15) #11
  call void @llvm.lifetime.end.p0(i64 8, ptr %14) #11
  call void @llvm.lifetime.end.p0(i64 8, ptr %13) #11
  call void @llvm.lifetime.end.p0(i64 8, ptr %12) #11
  call void @llvm.lifetime.end.p0(i64 8, ptr %11) #11
  call void @llvm.lifetime.end.p0(i64 8, ptr %10) #11
  call void @llvm.lifetime.end.p0(i64 8, ptr %9) #11
  call void @llvm.lifetime.end.p0(i64 8, ptr %8) #11
  %194 = load ptr, ptr %4, align 8
  ret ptr %194
}