; Function Attrs: nounwind uwtable
define dso_local ptr @lookupKeyByPattern(ptr noundef %0, ptr noundef readonly captures(none) %1, ptr noundef %2) local_unnamed_addr #0 {
  %4 = alloca ptr, align 8
  %5 = alloca i32, align 4
  call void @llvm.lifetime.start.p0(i64 8, ptr nonnull %4) #12
  %6 = getelementptr inbounds nuw i8, ptr %1, i64 8
  %7 = load ptr, ptr %6, align 8, !tbaa !13
  %8 = load i8, ptr %7, align 1, !tbaa !15
  %9 = icmp eq i8 %8, 35
  br i1 %9, label %10, label %15

10:                                               ; preds = %3
  %11 = getelementptr inbounds nuw i8, ptr %7, i64 1
  %12 = load i8, ptr %11, align 1, !tbaa !15
  %13 = icmp eq i8 %12, 0
  br i1 %13, label %14, label %15

14:                                               ; preds = %10
  tail call void @incrRefCount(ptr noundef %2) #12
  br label %136

15:                                               ; preds = %10, %3
  %16 = tail call ptr @getDecodedObject(ptr noundef %2) #12
  %17 = getelementptr inbounds nuw i8, ptr %16, i64 8
  %18 = load ptr, ptr %17, align 8, !tbaa !13
  %19 = tail call ptr @strchr(ptr noundef nonnull dereferenceable(1) %7, i32 noundef 42) #13
  %.not = icmp eq ptr %19, null
  br i1 %.not, label %20, label %21

20:                                               ; preds = %15
  tail call void @decrRefCount(ptr noundef nonnull %16) #12
  br label %136

21:                                               ; preds = %15
  %22 = getelementptr inbounds nuw i8, ptr %19, i64 1
  %23 = tail call ptr @strstr(ptr noundef nonnull dereferenceable(1) %22, ptr noundef nonnull dereferenceable(1) @.str) #13
  %.not66 = icmp eq ptr %23, null
  br i1 %.not66, label %57, label %24

24:                                               ; preds = %21
  %25 = getelementptr inbounds nuw i8, ptr %23, i64 2
  %26 = load i8, ptr %25, align 1, !tbaa !15
  %.not67 = icmp eq i8 %26, 0
  br i1 %.not67, label %57, label %27

27:                                               ; preds = %24
  %28 = getelementptr inbounds i8, ptr %7, i64 -1
  %29 = load i8, ptr %28, align 1, !tbaa !15
  %30 = zext i8 %29 to i32
  %31 = and i32 %30, 7
  switch i32 %31, label %sdslen.exit [
    i32 0, label %32
    i32 1, label %35
    i32 2, label %39
    i32 3, label %43
    i32 4, label %47
  ]

32:                                               ; preds = %27
  %33 = lshr i32 %30, 3
  %34 = zext nneg i32 %33 to i64
  br label %sdslen.exit

35:                                               ; preds = %27
  %36 = getelementptr inbounds i8, ptr %7, i64 -3
  %37 = load i8, ptr %36, align 1, !tbaa !15
  %38 = zext i8 %37 to i64
  br label %sdslen.exit

39:                                               ; preds = %27
  %40 = getelementptr inbounds i8, ptr %7, i64 -5
  %41 = load i16, ptr %40, align 1, !tbaa !16
  %42 = zext i16 %41 to i64
  br label %sdslen.exit

43:                                               ; preds = %27
  %44 = getelementptr inbounds i8, ptr %7, i64 -9
  %45 = load i32, ptr %44, align 1, !tbaa !18
  %46 = zext i32 %45 to i64
  br label %sdslen.exit

47:                                               ; preds = %27
  %48 = getelementptr inbounds i8, ptr %7, i64 -17
  %49 = load i64, ptr %48, align 1, !tbaa !19
  br label %sdslen.exit

sdslen.exit:                                      ; preds = %27, %32, %35, %39, %43, %47
  %.0.i = phi i64 [ %49, %47 ], [ %46, %43 ], [ %42, %39 ], [ %38, %35 ], [ %34, %32 ], [ 0, %27 ]
  %50 = ptrtoint ptr %23 to i64
  %51 = ptrtoint ptr %7 to i64
  %.neg = sub i64 %51, %50
  %52 = add i64 %.neg, %.0.i
  %53 = trunc i64 %52 to i32
  %54 = add i32 %53, -2
  %55 = sext i32 %54 to i64
  %56 = tail call ptr @createStringObject(ptr noundef nonnull %25, i64 noundef %55) #12
  br label %57

57:                                               ; preds = %21, %24, %sdslen.exit
  %.061 = phi ptr [ %56, %sdslen.exit ], [ null, %24 ], [ null, %21 ]
  %.059 = phi i32 [ %54, %sdslen.exit ], [ 0, %24 ], [ 0, %21 ]
  %58 = ptrtoint ptr %19 to i64
  %59 = ptrtoint ptr %7 to i64
  %60 = sub i64 %58, %59
  %61 = getelementptr inbounds i8, ptr %18, i64 -1
  %62 = load i8, ptr %61, align 1, !tbaa !15
  %63 = zext i8 %62 to i32
  %64 = and i32 %63, 7
  switch i32 %64, label %sdslen.exit79 [
    i32 0, label %65
    i32 1, label %68
    i32 2, label %72
    i32 3, label %76
    i32 4, label %80
  ]

65:                                               ; preds = %57
  %66 = lshr i32 %63, 3
  %67 = zext nneg i32 %66 to i64
  br label %sdslen.exit79

68:                                               ; preds = %57
  %69 = getelementptr inbounds i8, ptr %18, i64 -3
  %70 = load i8, ptr %69, align 1, !tbaa !15
  %71 = zext i8 %70 to i64
  br label %sdslen.exit79

72:                                               ; preds = %57
  %73 = getelementptr inbounds i8, ptr %18, i64 -5
  %74 = load i16, ptr %73, align 1, !tbaa !16
  %75 = zext i16 %74 to i64
  br label %sdslen.exit79

76:                                               ; preds = %57
  %77 = getelementptr inbounds i8, ptr %18, i64 -9
  %78 = load i32, ptr %77, align 1, !tbaa !18
  %79 = zext i32 %78 to i64
  br label %sdslen.exit79

80:                                               ; preds = %57
  %81 = getelementptr inbounds i8, ptr %18, i64 -17
  %82 = load i64, ptr %81, align 1, !tbaa !19
  br label %sdslen.exit79

sdslen.exit79:                                    ; preds = %57, %65, %68, %72, %76, %80
  %.0.i78 = phi i64 [ %82, %80 ], [ %79, %76 ], [ %75, %72 ], [ %71, %68 ], [ %67, %65 ], [ 0, %57 ]
  %83 = getelementptr inbounds i8, ptr %7, i64 -1
  %84 = load i8, ptr %83, align 1, !tbaa !15
  %85 = zext i8 %84 to i32
  %86 = and i32 %85, 7
  switch i32 %86, label %sdslen.exit81 [
    i32 0, label %87
    i32 1, label %90
    i32 2, label %94
    i32 3, label %98
    i32 4, label %102
  ]

87:                                               ; preds = %sdslen.exit79
  %88 = lshr i32 %85, 3
  %89 = zext nneg i32 %88 to i64
  br label %sdslen.exit81

90:                                               ; preds = %sdslen.exit79
  %91 = getelementptr inbounds i8, ptr %7, i64 -3
  %92 = load i8, ptr %91, align 1, !tbaa !15
  %93 = zext i8 %92 to i64
  br label %sdslen.exit81

94:                                               ; preds = %sdslen.exit79
  %95 = getelementptr inbounds i8, ptr %7, i64 -5
  %96 = load i16, ptr %95, align 1, !tbaa !16
  %97 = zext i16 %96 to i64
  br label %sdslen.exit81

98:                                               ; preds = %sdslen.exit79
  %99 = getelementptr inbounds i8, ptr %7, i64 -9
  %100 = load i32, ptr %99, align 1, !tbaa !18
  %101 = zext i32 %100 to i64
  br label %sdslen.exit81

102:                                              ; preds = %sdslen.exit79
  %103 = getelementptr inbounds i8, ptr %7, i64 -17
  %104 = load i64, ptr %103, align 1, !tbaa !19
  br label %sdslen.exit81

sdslen.exit81:                                    ; preds = %sdslen.exit79, %87, %90, %94, %98, %102
  %.0.i80 = phi i64 [ %104, %102 ], [ %101, %98 ], [ %97, %94 ], [ %93, %90 ], [ %89, %87 ], [ 0, %sdslen.exit79 ]
  %.not68 = icmp eq i32 %.059, 0
  %105 = add nsw i32 %.059, 2
  %106 = select i1 %.not68, i32 0, i32 %105
  %107 = zext i32 %106 to i64
  %.neg86 = xor i64 %60, -1
  %.neg88 = sub i64 %.neg86, %107
  %108 = add i64 %.neg88, %.0.i80
  %109 = add i64 %.0.i78, %60
  %110 = add i64 %109, %108
  %sext = shl i64 %110, 32
  %111 = ashr exact i64 %sext, 32
  %112 = tail call ptr @createStringObject(ptr noundef null, i64 noundef %111) #12
  %113 = getelementptr inbounds nuw i8, ptr %112, i64 8
  %114 = load ptr, ptr %113, align 8, !tbaa !13
  %sext70 = shl i64 %60, 32
  %115 = ashr exact i64 %sext70, 32
  tail call void @llvm.memcpy.p0.p0.i64(ptr align 1 %114, ptr nonnull align 1 %7, i64 %115, i1 false)
  %116 = getelementptr inbounds i8, ptr %114, i64 %115
  %sext71 = shl i64 %.0.i78, 32
  %117 = ashr exact i64 %sext71, 32
  tail call void @llvm.memcpy.p0.p0.i64(ptr align 1 %116, ptr nonnull align 1 %18, i64 %117, i1 false)
  %118 = getelementptr inbounds i8, ptr %116, i64 %117
  %sext72 = shl i64 %108, 32
  %119 = ashr exact i64 %sext72, 32
  tail call void @llvm.memcpy.p0.p0.i64(ptr align 1 %118, ptr nonnull align 1 %22, i64 %119, i1 false)
  tail call void @decrRefCount(ptr noundef nonnull %16) #12
  %120 = tail call ptr @lookupKeyRead(ptr noundef %0, ptr noundef %112) #12
  %121 = icmp eq ptr %120, null
  br i1 %121, label %134, label %122

122:                                              ; preds = %sdslen.exit81
  %.not74 = icmp eq ptr %.061, null
  %123 = load i32, ptr %120, align 8
  %124 = and i32 %123, 15
  br i1 %.not74, label %132, label %125

125:                                              ; preds = %122
  %.not76 = icmp eq i32 %124, 4
  br i1 %.not76, label %126, label %134

126:                                              ; preds = %125
  call void @llvm.lifetime.start.p0(i64 4, ptr nonnull %5) #12
  %127 = getelementptr inbounds nuw i8, ptr %.061, i64 8
  %128 = load ptr, ptr %127, align 8, !tbaa !13
  %129 = call i32 @hashTypeGetValueObject(ptr noundef %0, ptr noundef nonnull %120, ptr noundef %128, i32 noundef 0, ptr noundef nonnull %4, ptr noundef null, ptr noundef nonnull %5) #12
  %130 = load ptr, ptr %4, align 8, !tbaa !21
  %131 = load i32, ptr %5, align 4, !tbaa !18
  %.not77 = icmp eq i32 %131, 0
  call void @llvm.lifetime.end.p0(i64 4, ptr nonnull %5) #12
  br i1 %.not77, label %133, label %134

132:                                              ; preds = %122
  %.not75 = icmp eq i32 %124, 0
  br i1 %.not75, label %.thread, label %134

.thread:                                          ; preds = %132
  tail call void @incrRefCount(ptr noundef nonnull %120) #12
  tail call void @decrRefCount(ptr noundef nonnull %112) #12
  br label %136

133:                                              ; preds = %126
  call void @decrRefCount(ptr noundef nonnull %112) #12
  call void @decrRefCount(ptr noundef nonnull %.061) #12
  br label %136

134:                                              ; preds = %126, %132, %125, %sdslen.exit81
  call void @decrRefCount(ptr noundef nonnull %112) #12
  br i1 %.not68, label %136, label %135

135:                                              ; preds = %134
  call void @decrRefCount(ptr noundef %.061) #12
  br label %136

136:                                              ; preds = %.thread, %134, %135, %133, %20, %14
  %.060 = phi ptr [ %2, %14 ], [ null, %20 ], [ %130, %133 ], [ null, %135 ], [ null, %134 ], [ %120, %.thread ]
  call void @llvm.lifetime.end.p0(i64 8, ptr nonnull %4) #12
  ret ptr %.060
}